target datalayout = "e-m:e-p270:32:32-p271:32:32-p272:64:64-i64:64-i128:128-f80:128-n8:16:32:64-S128"
target triple = "x86_64-pc-linux-gnu"

%struct._proto_node = type { ptr, ptr, ptr, ptr, ptr, ptr, ptr }
%struct.field_info = type { ptr, i32, i32, i32, i32, i32, i32, ptr, ptr, ptr, i32, i32 }

@hf_cipsafety_crc_s3 = internal global i32 0, align 4
@hf_cipsafety_mcast_byte = internal global i32 0, align 4
@hf_cipsafety_mcast_byte2 = internal global i32 0, align 4
@hf_cipsafety_time_correction = internal global i32 0, align 4
@hf_cip_safety_message_encoding = internal global i32 0, align 4
@ett_cipsafety_mcast_byte = internal global i32 0, align 4
@dissect_mcast_byte.bits = internal constant [6 x ptr] [ptr @hf_cipsafety_mcast_byte_consumer_num, ptr @hf_cipsafety_mcast_byte_reserved1, ptr @hf_cipsafety_mcast_byte_mai, ptr @hf_cipsafety_mcast_byte_reserved2, ptr @hf_cipsafety_mcast_byte_parity_even, ptr null], align 16

; Function Attrs: null_pointer_is_valid sspstrong uwtable
define internal void @dissect_mcast_byte(ptr noundef %0, ptr noundef %1, i32 noundef %2) #0 {
  %4 = alloca ptr, align 8
  %5 = alloca ptr, align 8
  %6 = alloca i32, align 4
  store ptr %0, ptr %4, align 8
  store ptr %1, ptr %5, align 8
  store i32 %2, ptr %6, align 4
  %7 = load ptr, ptr %4, align 8
  %8 = load ptr, ptr %5, align 8
  %9 = load i32, ptr %6, align 4
  %10 = load i32, ptr @hf_cipsafety_mcast_byte, align 4
  %11 = load i32, ptr @ett_cipsafety_mcast_byte, align 4
  %12 = call ptr @proto_tree_add_bitmask(ptr noundef %7, ptr noundef %8, i32 noundef %9, i32 noundef %10, i32 noundef %11, ptr noundef @dissect_mcast_byte.bits, i32 noundef -2147483648)
  ret void
}

; Function Attrs: inlinehint nounwind null_pointer_is_valid sspstrong uwtable
define internal void @proto_item_set_generated(ptr noundef %0) #5 {
  %2 = alloca ptr, align 8
  store ptr %0, ptr %2, align 8
  %3 = load ptr, ptr %2, align 8
  %4 = icmp ne ptr %3, null
  br i1 %4, label %5, label %24

5:                                                ; preds = %1
  br label %6

6:                                                ; preds = %5
  %7 = load ptr, ptr %2, align 8
  %8 = getelementptr inbounds nuw %struct._proto_node, ptr %7, i32 0, i32 5
  %9 = load ptr, ptr %8, align 8
  %10 = icmp ne ptr %9, null
  br i1 %10, label %11, label %22

11:                                               ; preds = %6
  %12 = load ptr, ptr %2, align 8
  %13 = getelementptr inbounds nuw %struct._proto_node, ptr %12, i32 0, i32 5
  %14 = load ptr, ptr %13, align 8
  %15 = getelementptr inbounds nuw %struct.field_info, ptr %14, i32 0, i32 6
  %16 = load i32, ptr %15, align 4
  %17 = or i32 %16, 2
  %18 = load ptr, ptr %2, align 8
  %19 = getelementptr inbounds nuw %struct._proto_node, ptr %18, i32 0, i32 5
  %20 = load ptr, ptr %19, align 8
  %21 = getelementptr inbounds nuw %struct.field_info, ptr %20, i32 0, i32 6
  store i32 %17, ptr %21, align 4
  br label %22

22:                                               ; preds = %11, %6
  br label %23

23:                                               ; preds = %22
  br label %24

24:                                               ; preds = %23, %1
  ret void
}

; Function Attrs: null_pointer_is_valid sspstrong uwtable
define internal void @dissect_base_format_time_correction_message(ptr noundef %0, ptr noundef %1, i32 noundef %2) #0 {
  %4 = alloca ptr, align 8
  %5 = alloca ptr, align 8
  %6 = alloca i32, align 4
  %7 = alloca ptr, align 8
  store ptr %0, ptr %4, align 8
  store ptr %1, ptr %5, align 8
  store i32 %2, ptr %6, align 4
  call void @llvm.lifetime.start.p0(i64 8, ptr %7) #11
  %8 = load ptr, ptr %4, align 8
  %9 = load i32, ptr @hf_cip_safety_message_encoding, align 4
  %10 = load ptr, ptr %5, align 8
  %11 = call ptr @proto_tree_add_uint(ptr noundef %8, i32 noundef %9, ptr noundef %10, i32 noundef 0, i32 noundef 0, i32 noundef 7)
  store ptr %11, ptr %7, align 8
  %12 = load ptr, ptr %7, align 8
  call void @proto_item_set_generated(ptr noundef %12)
  %13 = load ptr, ptr %4, align 8
  %14 = load ptr, ptr %5, align 8
  %15 = load i32, ptr %6, align 4
  call void @dissect_mcast_byte(ptr noundef %13, ptr noundef %14, i32 noundef %15)
  %16 = load ptr, ptr %4, align 8
  %17 = load i32, ptr @hf_cipsafety_time_correction, align 4
  %18 = load ptr, ptr %5, align 8
  %19 = load i32, ptr %6, align 4
  %20 = add i32 %19, 1
  %21 = call ptr @proto_tree_add_item(ptr noundef %16, i32 noundef %17, ptr noundef %18, i32 noundef %20, i32 noundef 2, i32 noundef -2147483648)
  %22 = load ptr, ptr %4, align 8
  %23 = load i32, ptr @hf_cipsafety_mcast_byte2, align 4
  %24 = load ptr, ptr %5, align 8
  %25 = load i32, ptr %6, align 4
  %26 = add i32 %25, 3
  %27 = call ptr @proto_tree_add_item(ptr noundef %22, i32 noundef %23, ptr noundef %24, i32 noundef %26, i32 noundef 1, i32 noundef -2147483648)
  %28 = load ptr, ptr %4, align 8
  %29 = load i32, ptr @hf_cipsafety_crc_s3, align 4
  %30 = load ptr, ptr %5, align 8
  %31 = load i32, ptr %6, align 4
  %32 = add i32 %31, 4
  %33 = call ptr @proto_tree_add_item(ptr noundef %28, i32 noundef %29, ptr noundef %30, i32 noundef %32, i32 noundef 2, i32 noundef -2147483648)
  call void @llvm.lifetime.end.p0(i64 8, ptr %7) #11
  ret void
}