; Function Attrs: null_pointer_is_valid sspstrong uwtable
define internal fastcc void @dissect_base_format_time_correction_message(ptr noundef %0, ptr noundef %1, i32 noundef range(i32 0, 2147483642) %2) unnamed_addr #2 {
  %4 = load i32, ptr @hf_cip_safety_message_encoding, align 4
  %5 = tail call ptr @proto_tree_add_uint(ptr noundef %0, i32 noundef %4, ptr noundef %1, i32 noundef 0, i32 noundef 0, i32 noundef 7)
  %.not.i = icmp eq ptr %5, null
  br i1 %.not.i, label %proto_item_set_generated.exit, label %6

6:                                                ; preds = %3
  %7 = getelementptr inbounds nuw i8, ptr %5, i64 40
  %8 = load ptr, ptr %7, align 8
  %.not5.i = icmp eq ptr %8, null
  br i1 %.not5.i, label %proto_item_set_generated.exit, label %9

9:                                                ; preds = %6
  %10 = getelementptr inbounds nuw i8, ptr %8, i64 28
  %11 = load i32, ptr %10, align 4
  %12 = or i32 %11, 2
  store i32 %12, ptr %10, align 4
  br label %proto_item_set_generated.exit

proto_item_set_generated.exit:                    ; preds = %3, %6, %9
  %13 = load i32, ptr @hf_cipsafety_mcast_byte, align 4
  %14 = load i32, ptr @ett_cipsafety_mcast_byte, align 4
  %15 = tail call ptr @proto_tree_add_bitmask(ptr noundef %0, ptr noundef %1, i32 noundef range(i32 -4, -5) %2, i32 noundef %13, i32 noundef %14, ptr noundef nonnull @dissect_mcast_byte.bits, i32 noundef -2147483648)
  %16 = load i32, ptr @hf_cipsafety_time_correction, align 4
  %17 = add nuw nsw i32 %2, 1
  %18 = tail call ptr @proto_tree_add_item(ptr noundef %0, i32 noundef %16, ptr noundef %1, i32 noundef %17, i32 noundef 2, i32 noundef -2147483648)
  %19 = load i32, ptr @hf_cipsafety_mcast_byte2, align 4
  %20 = add nuw nsw i32 %2, 3
  %21 = tail call ptr @proto_tree_add_item(ptr noundef %0, i32 noundef %19, ptr noundef %1, i32 noundef %20, i32 noundef 1, i32 noundef -2147483648)
  %22 = load i32, ptr @hf_cipsafety_crc_s3, align 4
  %23 = add nuw nsw i32 %2, 4
  %24 = tail call ptr @proto_tree_add_item(ptr noundef %0, i32 noundef %22, ptr noundef %1, i32 noundef %23, i32 noundef 2, i32 noundef -2147483648)
  ret void
}